target datalayout = "e-m:e-p270:32:32-p271:32:32-p272:64:64-i64:64-i128:128-f80:128-n8:16:32:64-S128"
target triple = "x86_64-pc-linux-gnu"

; Function Attrs: inlinehint mustprogress nounwind uwtable
define internal noundef signext i8 @_ZL9U_SUCCESS10UErrorCode(i32 noundef %0) #7 {
  %2 = alloca i32, align 4
  store i32 %0, ptr %2, align 4, !tbaa !29
  %3 = load i32, ptr %2, align 4, !tbaa !29
  %4 = icmp sle i32 %3, 0
  %5 = zext i1 %4 to i8
  ret i8 %5
}

; Function Attrs: inlinehint mustprogress nounwind uwtable
define internal noundef signext i8 @_ZL9U_FAILURE10UErrorCode(i32 noundef %0) #7 {
  %2 = alloca i32, align 4
  store i32 %0, ptr %2, align 4, !tbaa !29
  %3 = load i32, ptr %2, align 4, !tbaa !29
  %4 = icmp sgt i32 %3, 0
  %5 = zext i1 %4 to i8
  ret i8 %5
}

; Function Attrs: mustprogress uwtable
define void @_ZN6icu_778toolutil13setCPTrieBitsEP14UMutableCPTrieiijjR10UErrorCode(ptr noundef %0, i32 noundef %1, i32 noundef %2, i32 noundef %3, i32 noundef %4, ptr noundef nonnull align 4 dereferenceable(4) %5) #1 {
  %7 = alloca ptr, align 8
  %8 = alloca i32, align 4
  %9 = alloca i32, align 4
  %10 = alloca i32, align 4
  %11 = alloca i32, align 4
  %12 = alloca ptr, align 8
  %13 = alloca i32, align 4
  %14 = alloca i32, align 4
  %15 = alloca i32, align 4
  %16 = alloca i32, align 4
  %17 = alloca i32, align 4
  store ptr %0, ptr %7, align 8, !tbaa !20
  store i32 %1, ptr %8, align 4, !tbaa !22
  store i32 %2, ptr %9, align 4, !tbaa !22
  store i32 %3, ptr %10, align 4, !tbaa !22
  store i32 %4, ptr %11, align 4, !tbaa !22
  store ptr %5, ptr %12, align 8, !tbaa !26
  %18 = load ptr, ptr %12, align 8, !tbaa !26
  %19 = load i32, ptr %18, align 4, !tbaa !29
  %20 = call noundef signext i8 @_ZL9U_FAILURE10UErrorCode(i32 noundef %19)
  %21 = icmp ne i8 %20, 0
  br i1 %21, label %22, label %23

22:                                               ; preds = %6
  br label %94

23:                                               ; preds = %6
  %24 = load i32, ptr %11, align 4, !tbaa !22
  %25 = load i32, ptr %10, align 4, !tbaa !22
  %26 = xor i32 %25, -1
  %27 = and i32 %24, %26
  %28 = icmp ne i32 %27, 0
  br i1 %28, label %29, label %31

29:                                               ; preds = %23
  %30 = load ptr, ptr %12, align 8, !tbaa !26
  store i32 1, ptr %30, align 4, !tbaa !29
  br label %94

31:                                               ; preds = %23
  %32 = load i32, ptr %8, align 4, !tbaa !22
  %33 = load i32, ptr %9, align 4, !tbaa !22
  %34 = icmp eq i32 %32, %33
  br i1 %34, label %35, label %54

35:                                               ; preds = %31
  call void @llvm.lifetime.start.p0(i64 4, ptr %13) #14
  %36 = load ptr, ptr %7, align 8, !tbaa !20
  %37 = load i32, ptr %8, align 4, !tbaa !22
  %38 = call i32 @umutablecptrie_get_77(ptr noundef %36, i32 noundef %37)
  store i32 %38, ptr %13, align 4, !tbaa !22
  call void @llvm.lifetime.start.p0(i64 4, ptr %14) #14
  %39 = load i32, ptr %13, align 4, !tbaa !22
  %40 = load i32, ptr %10, align 4, !tbaa !22
  %41 = xor i32 %40, -1
  %42 = and i32 %39, %41
  %43 = load i32, ptr %11, align 4, !tbaa !22
  %44 = or i32 %42, %43
  store i32 %44, ptr %14, align 4, !tbaa !22
  %45 = load i32, ptr %14, align 4, !tbaa !22
  %46 = load i32, ptr %13, align 4, !tbaa !22
  %47 = icmp ne i32 %45, %46
  br i1 %47, label %48, label %53

48:                                               ; preds = %35
  %49 = load ptr, ptr %7, align 8, !tbaa !20
  %50 = load i32, ptr %8, align 4, !tbaa !22
  %51 = load i32, ptr %14, align 4, !tbaa !22
  %52 = load ptr, ptr %12, align 8, !tbaa !26
  call void @umutablecptrie_set_77(ptr noundef %49, i32 noundef %50, i32 noundef %51, ptr noundef %52)
  br label %53

53:                                               ; preds = %48, %35
  call void @llvm.lifetime.end.p0(i64 4, ptr %14) #14
  call void @llvm.lifetime.end.p0(i64 4, ptr %13) #14
  br label %94

54:                                               ; preds = %31
  br label %55

55:                                               ; preds = %91, %54
  %56 = load i32, ptr %8, align 4, !tbaa !22
  %57 = load i32, ptr %9, align 4, !tbaa !22
  %58 = icmp sle i32 %56, %57
  br i1 %58, label %59, label %64

59:                                               ; preds = %55
  %60 = load ptr, ptr %12, align 8, !tbaa !26
  %61 = load i32, ptr %60, align 4, !tbaa !29
  %62 = call noundef signext i8 @_ZL9U_SUCCESS10UErrorCode(i32 noundef %61)
  %63 = icmp ne i8 %62, 0
  br label %64

64:                                               ; preds = %59, %55
  %65 = phi i1 [ false, %55 ], [ %63, %59 ]
  br i1 %65, label %66, label %94

66:                                               ; preds = %64
  call void @llvm.lifetime.start.p0(i64 4, ptr %15) #14
  call void @llvm.lifetime.start.p0(i64 4, ptr %16) #14
  %67 = load ptr, ptr %7, align 8, !tbaa !20
  %68 = load i32, ptr %8, align 4, !tbaa !22
  %69 = call i32 @umutablecptrie_getRange_77(ptr noundef %67, i32 noundef %68, i32 noundef 0, i32 noundef 0, ptr noundef null, ptr noundef null, ptr noundef %15)
  store i32 %69, ptr %16, align 4, !tbaa !22
  %70 = load i32, ptr %16, align 4, !tbaa !22
  %71 = load i32, ptr %9, align 4, !tbaa !22
  %72 = icmp sgt i32 %70, %71
  br i1 %72, label %73, label %75

73:                                               ; preds = %66
  %74 = load i32, ptr %9, align 4, !tbaa !22
  store i32 %74, ptr %16, align 4, !tbaa !22
  br label %75

75:                                               ; preds = %73, %66
  call void @llvm.lifetime.start.p0(i64 4, ptr %17) #14
  %76 = load i32, ptr %15, align 4, !tbaa !22
  %77 = load i32, ptr %10, align 4, !tbaa !22
  %78 = xor i32 %77, -1
  %79 = and i32 %76, %78
  %80 = load i32, ptr %11, align 4, !tbaa !22
  %81 = or i32 %79, %80
  store i32 %81, ptr %17, align 4, !tbaa !22
  %82 = load i32, ptr %17, align 4, !tbaa !22
  %83 = load i32, ptr %15, align 4, !tbaa !22
  %84 = icmp ne i32 %82, %83
  br i1 %84, label %85, label %91

85:                                               ; preds = %75
  %86 = load ptr, ptr %7, align 8, !tbaa !20
  %87 = load i32, ptr %8, align 4, !tbaa !22
  %88 = load i32, ptr %16, align 4, !tbaa !22
  %89 = load i32, ptr %17, align 4, !tbaa !22
  %90 = load ptr, ptr %12, align 8, !tbaa !26
  call void @umutablecptrie_setRange_77(ptr noundef %86, i32 noundef %87, i32 noundef %88, i32 noundef %89, ptr noundef %90)
  br label %91

91:                                               ; preds = %85, %75
  %92 = load i32, ptr %16, align 4, !tbaa !22
  %93 = add nsw i32 %92, 1
  store i32 %93, ptr %8, align 4, !tbaa !22
  call void @llvm.lifetime.end.p0(i64 4, ptr %17) #14
  call void @llvm.lifetime.end.p0(i64 4, ptr %16) #14
  call void @llvm.lifetime.end.p0(i64 4, ptr %15) #14
  br label %55, !llvm.loop !30

94:                                               ; preds = %22, %29, %53, %64
  ret void
}