; Function Attrs: mustprogress uwtable
define void @_ZN6icu_778toolutil13setCPTrieBitsEP14UMutableCPTrieiijjR10UErrorCode(ptr noundef %0, i32 noundef %1, i32 noundef %2, i32 noundef %3, i32 noundef %4, ptr noundef nonnull align 4 dereferenceable(4) %5) local_unnamed_addr #8 {
  %7 = alloca i32, align 4
  %8 = load i32, ptr %5, align 4, !tbaa !16
  %9 = icmp slt i32 %8, 1
  br i1 %9, label %10, label %.critedge

10:                                               ; preds = %6
  %11 = xor i32 %3, -1
  %12 = and i32 %4, %11
  %.not39 = icmp eq i32 %12, 0
  br i1 %.not39, label %14, label %13

13:                                               ; preds = %10
  store i32 1, ptr %5, align 4, !tbaa !16
  br label %.critedge

14:                                               ; preds = %10
  %15 = icmp eq i32 %1, %2
  br i1 %15, label %16, label %.preheader

.preheader:                                       ; preds = %14
  %.not4045 = icmp sgt i32 %1, %2
  br i1 %.not4045, label %.critedge, label %.lr.ph

16:                                               ; preds = %14
  %17 = tail call i32 @umutablecptrie_get_77(ptr noundef %0, i32 noundef %1)
  %18 = and i32 %17, %11
  %19 = or i32 %18, %4
  %.not43 = icmp eq i32 %19, %17
  br i1 %.not43, label %.critedge, label %20

20:                                               ; preds = %16
  tail call void @umutablecptrie_set_77(ptr noundef %0, i32 noundef %1, i32 noundef %19, ptr noundef nonnull %5)
  br label %.critedge

.lr.ph:                                           ; preds = %.preheader, %26
  %.047 = phi i32 [ %27, %26 ], [ %1, %.preheader ]
  call void @llvm.lifetime.start.p0(i64 4, ptr nonnull %7) #23
  %21 = call i32 @umutablecptrie_getRange_77(ptr noundef %0, i32 noundef %.047, i32 noundef 0, i32 noundef 0, ptr noundef null, ptr noundef null, ptr noundef nonnull %7)
  %spec.select = call i32 @llvm.smin.i32(i32 %21, i32 %2)
  %22 = load i32, ptr %7, align 4, !tbaa !17
  %23 = and i32 %22, %11
  %24 = or i32 %23, %4
  %.not42 = icmp eq i32 %24, %22
  br i1 %.not42, label %26, label %25

25:                                               ; preds = %.lr.ph
  call void @umutablecptrie_setRange_77(ptr noundef %0, i32 noundef %.047, i32 noundef %spec.select, i32 noundef %24, ptr noundef nonnull %5)
  br label %26

26:                                               ; preds = %25, %.lr.ph
  %27 = add nsw i32 %spec.select, 1
  call void @llvm.lifetime.end.p0(i64 4, ptr nonnull %7) #23
  %.not40 = icmp sge i32 %21, %2
  %28 = load i32, ptr %5, align 4
  %29 = icmp sgt i32 %28, 0
  %or.cond = select i1 %.not40, i1 true, i1 %29
  br i1 %or.cond, label %.critedge, label %.lr.ph, !llvm.loop !19

.critedge:                                        ; preds = %26, %.preheader, %16, %20, %6, %13
  ret void
}